target datalayout = "e-m:e-p270:32:32-p271:32:32-p272:64:64-i64:64-i128:128-f80:128-n8:16:32:64-S128"
target triple = "x86_64-pc-linux-gnu"

%"struct.Luau::Location" = type { %"struct.Luau::Position", %"struct.Luau::Position" }
%"struct.Luau::Position" = type { i32, i32 }
%"class.Luau::AstNode" = type <{ ptr, i32, %"struct.Luau::Location", [4 x i8] }>
%"struct.Luau::AnyTypeSummary::FindReturnAncestry" = type <{ %"class.Luau::AstVisitor", ptr, ptr, %"struct.Luau::Position", i8, [7 x i8] }>
%"class.Luau::AstVisitor" = type { ptr }

@_ZN4Luau14AnyTypeSummary18FindReturnAncestryC1EPNS_7AstNodeENS_8PositionE = dso_local unnamed_addr alias void (ptr, ptr, i64), ptr @_ZN4Luau14AnyTypeSummary18FindReturnAncestryC2EPNS_7AstNodeENS_8PositionE

; Function Attrs: mustprogress nounwind uwtable
define linkonce_odr dso_local void @_ZN4Luau10AstVisitorD2Ev(ptr noundef nonnull align 8 dereferenceable(8) %0) unnamed_addr #2 comdat align 2 {
  %2 = alloca ptr, align 8
  store ptr %0, ptr %2, align 8, !tbaa !499
  ret void
}

; Function Attrs: mustprogress uwtable
define dso_local noundef ptr @_ZN4Luau14AnyTypeSummary7getNodeEPNS_12AstStatBlockEPNS_7AstNodeE(ptr noundef nonnull align 8 dereferenceable(288) %0, ptr noundef %1, ptr noundef %2) #8 align 2 personality ptr @__gxx_personality_v0 {
  %4 = alloca ptr, align 8
  %5 = alloca ptr, align 8
  %6 = alloca ptr, align 8
  %7 = alloca %"struct.Luau::AnyTypeSummary::FindReturnAncestry", align 8
  %8 = alloca %"struct.Luau::Position", align 4
  %9 = alloca ptr, align 8
  %10 = alloca i32, align 4
  store ptr %0, ptr %4, align 8, !tbaa !42
  store ptr %1, ptr %5, align 8, !tbaa !54
  store ptr %2, ptr %6, align 8, !tbaa !99
  call void @llvm.lifetime.start.p0(i64 40, ptr %7) #4
  %11 = load ptr, ptr %6, align 8, !tbaa !99
  %12 = load ptr, ptr %5, align 8, !tbaa !54
  %13 = getelementptr inbounds nuw %"class.Luau::AstNode", ptr %12, i32 0, i32 2
  %14 = getelementptr inbounds nuw %"struct.Luau::Location", ptr %13, i32 0, i32 1
  call void @llvm.memcpy.p0.p0.i64(ptr align 4 %8, ptr align 4 %14, i64 8, i1 false), !tbaa.struct !296
  %15 = load i64, ptr %8, align 4
  call void @_ZN4Luau14AnyTypeSummary18FindReturnAncestryC1EPNS_7AstNodeENS_8PositionE(ptr noundef nonnull align 8 dereferenceable(40) %7, ptr noundef %11, i64 %15)
  %16 = load ptr, ptr %5, align 8, !tbaa !54
  %17 = load ptr, ptr %16, align 8, !tbaa !297
  %18 = getelementptr inbounds ptr, ptr %17, i64 0
  %19 = load ptr, ptr %18, align 8
  invoke void %19(ptr noundef nonnull align 8 dereferenceable(49) %16, ptr noundef %7)
          to label %20 unwind label %27

20:                                               ; preds = %3
  %21 = getelementptr inbounds nuw %"struct.Luau::AnyTypeSummary::FindReturnAncestry", ptr %7, i32 0, i32 1
  %22 = load ptr, ptr %21, align 8, !tbaa !299
  %23 = icmp ne ptr %22, null
  br i1 %23, label %31, label %24

24:                                               ; preds = %20
  %25 = load ptr, ptr %6, align 8, !tbaa !99
  %26 = getelementptr inbounds nuw %"struct.Luau::AnyTypeSummary::FindReturnAncestry", ptr %7, i32 0, i32 1
  store ptr %25, ptr %26, align 8, !tbaa !299
  br label %31

27:                                               ; preds = %3
  %28 = landingpad { ptr, i32 }
          cleanup
  %29 = extractvalue { ptr, i32 } %28, 0
  store ptr %29, ptr %9, align 8
  %30 = extractvalue { ptr, i32 } %28, 1
  store i32 %30, ptr %10, align 4
  call void @_ZN4Luau10AstVisitorD2Ev(ptr noundef nonnull align 8 dereferenceable(40) %7) #4
  call void @llvm.lifetime.end.p0(i64 40, ptr %7) #4
  br label %34

31:                                               ; preds = %24, %20
  %32 = getelementptr inbounds nuw %"struct.Luau::AnyTypeSummary::FindReturnAncestry", ptr %7, i32 0, i32 1
  %33 = load ptr, ptr %32, align 8, !tbaa !299
  call void @_ZN4Luau10AstVisitorD2Ev(ptr noundef nonnull align 8 dereferenceable(40) %7) #4
  call void @llvm.lifetime.end.p0(i64 40, ptr %7) #4
  ret ptr %33

34:                                               ; preds = %27
  %35 = load ptr, ptr %9, align 8
  %36 = load i32, ptr %10, align 4
  %37 = insertvalue { ptr, i32 } poison, ptr %35, 0
  %38 = insertvalue { ptr, i32 } %37, i32 %36, 1
  resume { ptr, i32 } %38
}