; Function Attrs: mustprogress uwtable
define dso_local noundef ptr @_ZN4Luau14AnyTypeSummary7getNodeEPNS_12AstStatBlockEPNS_7AstNodeE(ptr noundef nonnull readnone align 8 captures(none) dereferenceable(288) %0, ptr noundef %1, ptr noundef %2) local_unnamed_addr #6 align 2 personality ptr @__gxx_personality_v0 {
  %4 = alloca %"struct.Luau::AnyTypeSummary::FindReturnAncestry", align 8
  call void @llvm.lifetime.start.p0(i64 40, ptr nonnull %4) #32
  %5 = getelementptr inbounds nuw i8, ptr %1, i64 20
  %.sroa.0.0.copyload = load i64, ptr %5, align 4
  store ptr getelementptr inbounds nuw inrange(-16, 496) (i8, ptr @_ZTVN4Luau14AnyTypeSummary18FindReturnAncestryE, i64 16), ptr %4, align 8, !tbaa !59
  %6 = getelementptr inbounds nuw i8, ptr %4, i64 8
  store ptr null, ptr %6, align 8, !tbaa !102
  %7 = getelementptr inbounds nuw i8, ptr %4, i64 16
  store ptr %2, ptr %7, align 8, !tbaa !106
  %8 = getelementptr inbounds nuw i8, ptr %4, i64 24
  store i64 %.sroa.0.0.copyload, ptr %8, align 8
  %9 = getelementptr inbounds nuw i8, ptr %4, i64 32
  store i8 0, ptr %9, align 8, !tbaa !107
  %10 = load ptr, ptr %1, align 8, !tbaa !59
  %11 = load ptr, ptr %10, align 8
  call void %11(ptr noundef nonnull align 8 dereferenceable(49) %1, ptr noundef nonnull %4)
  %12 = load ptr, ptr %6, align 8, !tbaa !102
  %.not = icmp eq ptr %12, null
  %spec.select = select i1 %.not, ptr %2, ptr %12
  call void @llvm.lifetime.end.p0(i64 40, ptr nonnull %4) #32
  ret ptr %spec.select
}